target datalayout = "e-m:e-p270:32:32-p271:32:32-p272:64:64-i64:64-i128:128-f80:128-n8:16:32:64-S128"
target triple = "x86_64-pc-linux-gnu"

%struct.ocb128_context = type { ptr, ptr, ptr, ptr, ptr, i64, i64, %union.OCB_BLOCK, %union.OCB_BLOCK, ptr, %struct.anon }
%union.OCB_BLOCK = type { [2 x i64] }
%struct.anon = type { i64, i64, %union.OCB_BLOCK, %union.OCB_BLOCK, %union.OCB_BLOCK, %union.OCB_BLOCK }

; Function Attrs: nounwind uwtable
define internal i32 @ocb_finish(ptr noundef %0, ptr noundef %1, i64 noundef %2, i32 noundef %3) #0 {
  %5 = alloca i32, align 4
  %6 = alloca ptr, align 8
  %7 = alloca ptr, align 8
  %8 = alloca i64, align 8
  %9 = alloca i32, align 4
  %10 = alloca %union.OCB_BLOCK, align 8
  %11 = alloca i32, align 4
  store ptr %0, ptr %6, align 8, !tbaa !7
  store ptr %1, ptr %7, align 8, !tbaa !24
  store i64 %2, ptr %8, align 8, !tbaa !26
  store i32 %3, ptr %9, align 4, !tbaa !9
  call void @llvm.lifetime.start.p0(i64 16, ptr %10) #5
  %12 = load i64, ptr %8, align 8, !tbaa !26
  %13 = icmp ugt i64 %12, 16
  br i1 %13, label %17, label %14

14:                                               ; preds = %4
  %15 = load i64, ptr %8, align 8, !tbaa !26
  %16 = icmp ult i64 %15, 1
  br i1 %16, label %17, label %18

17:                                               ; preds = %14, %4
  store i32 -1, ptr %5, align 4
  store i32 1, ptr %11, align 4
  br label %94

18:                                               ; preds = %14
  %19 = load ptr, ptr %6, align 8, !tbaa !7
  %20 = getelementptr inbounds nuw %struct.ocb128_context, ptr %19, i32 0, i32 10
  %21 = getelementptr inbounds nuw %struct.anon, ptr %20, i32 0, i32 5
  %22 = getelementptr inbounds [2 x i64], ptr %21, i64 0, i64 0
  %23 = load i64, ptr %22, align 8, !tbaa !23
  %24 = load ptr, ptr %6, align 8, !tbaa !7
  %25 = getelementptr inbounds nuw %struct.ocb128_context, ptr %24, i32 0, i32 10
  %26 = getelementptr inbounds nuw %struct.anon, ptr %25, i32 0, i32 4
  %27 = getelementptr inbounds [2 x i64], ptr %26, i64 0, i64 0
  %28 = load i64, ptr %27, align 8, !tbaa !23
  %29 = xor i64 %23, %28
  %30 = getelementptr inbounds [2 x i64], ptr %10, i64 0, i64 0
  store i64 %29, ptr %30, align 8, !tbaa !23
  %31 = load ptr, ptr %6, align 8, !tbaa !7
  %32 = getelementptr inbounds nuw %struct.ocb128_context, ptr %31, i32 0, i32 10
  %33 = getelementptr inbounds nuw %struct.anon, ptr %32, i32 0, i32 5
  %34 = getelementptr inbounds [2 x i64], ptr %33, i64 0, i64 1
  %35 = load i64, ptr %34, align 8, !tbaa !23
  %36 = load ptr, ptr %6, align 8, !tbaa !7
  %37 = getelementptr inbounds nuw %struct.ocb128_context, ptr %36, i32 0, i32 10
  %38 = getelementptr inbounds nuw %struct.anon, ptr %37, i32 0, i32 4
  %39 = getelementptr inbounds [2 x i64], ptr %38, i64 0, i64 1
  %40 = load i64, ptr %39, align 8, !tbaa !23
  %41 = xor i64 %35, %40
  %42 = getelementptr inbounds [2 x i64], ptr %10, i64 0, i64 1
  store i64 %41, ptr %42, align 8, !tbaa !23
  %43 = load ptr, ptr %6, align 8, !tbaa !7
  %44 = getelementptr inbounds nuw %struct.ocb128_context, ptr %43, i32 0, i32 8
  %45 = getelementptr inbounds [2 x i64], ptr %44, i64 0, i64 0
  %46 = load i64, ptr %45, align 8, !tbaa !23
  %47 = getelementptr inbounds [2 x i64], ptr %10, i64 0, i64 0
  %48 = load i64, ptr %47, align 8, !tbaa !23
  %49 = xor i64 %46, %48
  %50 = getelementptr inbounds [2 x i64], ptr %10, i64 0, i64 0
  store i64 %49, ptr %50, align 8, !tbaa !23
  %51 = load ptr, ptr %6, align 8, !tbaa !7
  %52 = getelementptr inbounds nuw %struct.ocb128_context, ptr %51, i32 0, i32 8
  %53 = getelementptr inbounds [2 x i64], ptr %52, i64 0, i64 1
  %54 = load i64, ptr %53, align 8, !tbaa !23
  %55 = getelementptr inbounds [2 x i64], ptr %10, i64 0, i64 1
  %56 = load i64, ptr %55, align 8, !tbaa !23
  %57 = xor i64 %54, %56
  %58 = getelementptr inbounds [2 x i64], ptr %10, i64 0, i64 1
  store i64 %57, ptr %58, align 8, !tbaa !23
  %59 = load ptr, ptr %6, align 8, !tbaa !7
  %60 = getelementptr inbounds nuw %struct.ocb128_context, ptr %59, i32 0, i32 0
  %61 = load ptr, ptr %60, align 8, !tbaa !18
  %62 = getelementptr inbounds [16 x i8], ptr %10, i64 0, i64 0
  %63 = getelementptr inbounds [16 x i8], ptr %10, i64 0, i64 0
  %64 = load ptr, ptr %6, align 8, !tbaa !7
  %65 = getelementptr inbounds nuw %struct.ocb128_context, ptr %64, i32 0, i32 2
  %66 = load ptr, ptr %65, align 8, !tbaa !21
  call void %61(ptr noundef %62, ptr noundef %63, ptr noundef %66)
  %67 = getelementptr inbounds [2 x i64], ptr %10, i64 0, i64 0
  %68 = load i64, ptr %67, align 8, !tbaa !23
  %69 = load ptr, ptr %6, align 8, !tbaa !7
  %70 = getelementptr inbounds nuw %struct.ocb128_context, ptr %69, i32 0, i32 10
  %71 = getelementptr inbounds nuw %struct.anon, ptr %70, i32 0, i32 3
  %72 = getelementptr inbounds [2 x i64], ptr %71, i64 0, i64 0
  %73 = load i64, ptr %72, align 8, !tbaa !23
  %74 = xor i64 %68, %73
  %75 = getelementptr inbounds [2 x i64], ptr %10, i64 0, i64 0
  store i64 %74, ptr %75, align 8, !tbaa !23
  %76 = getelementptr inbounds [2 x i64], ptr %10, i64 0, i64 1
  %77 = load i64, ptr %76, align 8, !tbaa !23
  %78 = load ptr, ptr %6, align 8, !tbaa !7
  %79 = getelementptr inbounds nuw %struct.ocb128_context, ptr %78, i32 0, i32 10
  %80 = getelementptr inbounds nuw %struct.anon, ptr %79, i32 0, i32 3
  %81 = getelementptr inbounds [2 x i64], ptr %80, i64 0, i64 1
  %82 = load i64, ptr %81, align 8, !tbaa !23
  %83 = xor i64 %77, %82
  %84 = getelementptr inbounds [2 x i64], ptr %10, i64 0, i64 1
  store i64 %83, ptr %84, align 8, !tbaa !23
  %85 = load i32, ptr %9, align 4, !tbaa !9
  %86 = icmp ne i32 %85, 0
  br i1 %86, label %87, label %90

87:                                               ; preds = %18
  %88 = load ptr, ptr %7, align 8, !tbaa !24
  %89 = load i64, ptr %8, align 8, !tbaa !26
  call void @llvm.memcpy.p0.p0.i64(ptr align 1 %88, ptr align 8 %10, i64 %89, i1 false)
  store i32 1, ptr %5, align 4
  store i32 1, ptr %11, align 4
  br label %94

90:                                               ; preds = %18
  %91 = load ptr, ptr %7, align 8, !tbaa !24
  %92 = load i64, ptr %8, align 8, !tbaa !26
  %93 = call i32 @CRYPTO_memcmp(ptr noundef %10, ptr noundef %91, i64 noundef %92)
  store i32 %93, ptr %5, align 4
  store i32 1, ptr %11, align 4
  br label %94

94:                                               ; preds = %90, %87, %17
  call void @llvm.lifetime.end.p0(i64 16, ptr %10) #5
  %95 = load i32, ptr %5, align 4
  ret i32 %95
}

; Function Attrs: nounwind uwtable
define i32 @CRYPTO_ocb128_finish(ptr noundef %0, ptr noundef %1, i64 noundef %2) #0 {
  %4 = alloca ptr, align 8
  %5 = alloca ptr, align 8
  %6 = alloca i64, align 8
  store ptr %0, ptr %4, align 8, !tbaa !7
  store ptr %1, ptr %5, align 8, !tbaa !24
  store i64 %2, ptr %6, align 8, !tbaa !26
  %7 = load ptr, ptr %4, align 8, !tbaa !7
  %8 = load ptr, ptr %5, align 8, !tbaa !24
  %9 = load i64, ptr %6, align 8, !tbaa !26
  %10 = call i32 @ocb_finish(ptr noundef %7, ptr noundef %8, i64 noundef %9, i32 noundef 0)
  ret i32 %10
}